Certificate:
    Data:
        Version: 3 (0x2)
        Serial Number: 1 (0x1)
        Signature Algorithm: sha1WithRSAEncryption
        Issuer: C=BA, ST=RS, L=Banja Luka, O=Elektrotehnicki fakultet, OU=CA_ZoranDjuric, CN=Zoran/emailAddress=zoran@
        Validity
            Not Before: Apr  6 00:54:54 2024 GMT
            Not After : Jan 31 00:54:54 2025 GMT
        Subject: C=BA, ST=RS, L=BL, O=ETF, OU=CA_OgnjenJoldzic, CN=Alice/emailAddress=alice@al
        Subject Public Key Info:
            Public Key Algorithm: rsaEncryption
                RSA Public-Key: (2048 bit)
                Modulus:
                    00:d8:57:ea:73:48:0f:ad:b5:f7:fd:2b:8c:16:9b:
                    f2:0c:1e:a2:db:3e:3d:9d:b9:14:bd:d2:2a:a0:72:
                    98:ec:5c:35:23:a0:77:71:bb:0e:40:0a:a0:14:6b:
                    03:2d:16:cf:9a:11:9c:d8:5f:fe:4c:79:45:5e:94:
                    aa:e3:b0:91:45:65:c2:a6:95:b3:6f:b8:d3:3f:22:
                    b5:23:e0:af:f5:b3:94:4c:3b:57:78:d3:05:4b:d9:
                    af:18:2d:c8:72:08:26:95:a5:c4:9d:4a:dd:3f:20:
                    38:7a:8b:40:86:de:89:cf:89:66:3c:15:01:40:03:
                    c3:63:82:cb:5d:32:1a:ff:fe:ed:35:a7:3a:8e:ba:
                    d0:cb:c4:e5:0c:a4:0a:87:b7:c4:22:e4:96:32:ee:
                    35:4d:8c:48:79:72:b3:c0:b3:33:b3:01:d0:61:9a:
                    42:1d:15:1a:1e:7b:45:db:cb:09:85:a8:7a:70:5b:
                    8b:7c:9c:23:d5:d6:d9:77:3b:38:76:92:b5:bb:eb:
                    61:39:59:f9:38:df:f6:4a:f9:c5:07:a9:91:e5:0f:
                    db:d2:71:13:d1:f6:9e:74:31:ba:79:24:37:20:3c:
                    ea:d8:e5:e8:28:fb:fc:a6:d4:21:e0:bd:c7:a8:5f:
                    ec:fb:20:ac:a7:ff:7d:28:24:66:c9:54:b7:8c:d5:
                    65:87
                Exponent: 65537 (0x10001)
        X509v3 extensions:
            X509v3 Basic Constraints: 
                CA:FALSE
            X509v3 Extended Key Usage: 
                TLS Web Client Authentication
            Netscape Comment: 
                OpenSSL Generated Certificate
            X509v3 Subject Key Identifier: 
                A4:16:56:3E:95:A3:46:BB:00:5F:66:60:ED:52:E0:F5:F3:B7:17:6A
            X509v3 Authority Key Identifier: 
                keyid:75:D5:F5:A0:88:75:FF:4E:6F:9C:09:4E:D3:FB:F1:FE:9F:F6:42:93

            X509v3 CRL Distribution Points: 

                Full Name:
                  URI:http://192.168.21.89/rootcrl.pem

    Signature Algorithm: sha1WithRSAEncryption
         36:fc:da:ab:6b:34:75:0a:ed:5d:37:12:1a:fa:dd:e9:bf:62:
         99:6d:b1:8c:41:38:f0:af:22:12:68:6f:0a:b1:24:b7:a6:75:
         21:1d:50:f4:97:3c:41:e1:71:de:3f:1e:49:9d:94:9f:bc:f2:
         e7:92:52:fa:5f:bd:c4:07:c4:47:1c:e3:7a:88:bc:11:73:1c:
         22:ef:67:63:65:5f:f3:66:74:95:34:53:08:f6:24:53:42:d4:
         fb:48:d7:45:f5:f3:7c:a9:be:02:2b:f6:67:ed:96:eb:49:a2:
         b5:96:82:71:25:1b:81:dc:36:41:02:88:8f:0d:1c:2c:bb:10:
         96:53:a8:d7:e2:dd:10:8b:a3:d2:56:5f:a6:21:d0:74:fd:c8:
         14:93:d1:bf:62:3a:cb:a6:43:1c:b8:39:56:86:7d:43:ff:5a:
         f9:45:34:74:5f:a5:0a:b8:a0:c1:c9:11:41:1c:59:d2:cb:82:
         fc:b7:8a:a5:71:00:49:f7:68:90:70:aa:2c:d2:2a:48:3e:4a:
         2e:63:10:af:83:f2:89:2d:e1:b7:3d:6e:cb:f1:c9:55:b1:4e:
         5c:2e:a7:4f:c2:b7:77:78:4a:5b:f3:90:49:c3:87:e8:55:ff:
         3d:a2:c1:07:6b:39:a5:44:d7:88:71:ea:f1:a9:68:fc:db:a7:
         6f:16:f8:76:8f:13:b3:33:59:ba:20:ac:d1:f4:4b:31:1c:22:
         37:ea:a6:7a:dc:52:88:b5:ae:e6:d0:16:74:90:8c:f2:93:68:
         e5:93:7b:cd:e9:44:b6:60:3e:95:e0:8a:1c:f1:73:d7:d2:bc:
         2b:54:80:4d:d3:7b:eb:67:00:f6:73:9f:a1:3b:17:ff:25:7f:
         a8:a6:a7:34:35:f0:28:1d:8a:6d:b9:6c:90:35:c1:8b:52:22:
         c4:66:df:72:d9:ca:42:f1:bc:fb:08:13:34:0c:40:c2:a7:15:
         ea:65:42:3e:ed:ca:53:8b:ce:32:8c:58:fc:e8:6f:89:1d:1a:
         57:d6:13:28:63:ad:5a:7a:43:2f:42:36:7e:52:35:a2:3f:4c:
         3c:69:01:c9:19:7e:63:f4:79:b0:99:66:00:a5:30:d8:f7:52:
         55:c4:41:52:a1:36:c2:c6:87:5d:79:b9:02:09:11:2c:bd:aa:
         04:73:d2:0f:9d:45:01:5f:25:4f:15:cf:e7:ff:c4:36:a3:75:
         eb:54:40:12:b8:43:3c:76:2b:7e:46:59:64:3e:a1:66:8f:ed:
         9c:6a:58:7b:b3:ce:8e:c0:d2:04:1f:84:dc:19:75:d6:dd:54:
         e3:4c:f3:a8:e9:3c:7d:93:a7:f9:f5:8d:c7:a4:d9:cf:a9:57:
         88:c0:aa:cc:ab:e4:a9:50
-----BEGIN CERTIFICATE-----
MIIFTDCCAzSgAwIBAgIBATANBgkqhkiG9w0BAQUFADCBkjELMAkGA1UEBhMCQkEx
CzAJBgNVBAgTAlJTMRMwEQYDVQQHEwpCYW5qYSBMdWthMSEwHwYDVQQKExhFbGVr
dHJvdGVobmlja2kgZmFrdWx0ZXQxFzAVBgNVBAsUDkNBX1pvcmFuRGp1cmljMQ4w
DAYDVQQDEwVab3JhbjEVMBMGCSqGSIb3DQEJARYGem9yYW5AMB4XDTI0MDQwNjAw
NTQ1NFoXDTI1MDEzMTAwNTQ1NFoweTELMAkGA1UEBhMCQkExCzAJBgNVBAgTAlJT
MQswCQYDVQQHEwJCTDEMMAoGA1UEChMDRVRGMRkwFwYDVQQLFBBDQV9PZ25qZW5K
b2xkemljMQ4wDAYDVQQDEwVBbGljZTEXMBUGCSqGSIb3DQEJARYIYWxpY2VAYWww
ggEiMA0GCSqGSIb3DQEBAQUAA4IBDwAwggEKAoIBAQDYV+pzSA+ttff9K4wWm/IM
HqLbPj2duRS90iqgcpjsXDUjoHdxuw5ACqAUawMtFs+aEZzYX/5MeUVelKrjsJFF
ZcKmlbNvuNM/IrUj4K/1s5RMO1d40wVL2a8YLchyCCaVpcSdSt0/IDh6i0CG3onP
iWY8FQFAA8NjgstdMhr//u01pzqOutDLxOUMpAqHt8Qi5JYy7jVNjEh5crPAszOz
AdBhmkIdFRoee0XbywmFqHpwW4t8nCPV1tl3Ozh2krW762E5Wfk43/ZK+cUHqZHl
D9vScRPR9p50Mbp5JDcgPOrY5ego+/ym1CHgvceoX+z7IKyn/30oJGbJVLeM1WWH
AgMBAAGjgcQwgcEwCQYDVR0TBAIwADATBgNVHSUEDDAKBggrBgEFBQcDAjAsBglg
hkgBhvhCAQ0EHxYdT3BlblNTTCBHZW5lcmF0ZWQgQ2VydGlmaWNhdGUwHQYDVR0O
BBYEFKQWVj6Vo0a7AF9mYO1S4PXztxdqMB8GA1UdIwQYMBaAFHXV9aCIdf9Ob5wJ
TtP78f6f9kKTMDEGA1UdHwQqMCgwJqAkoCKGIGh0dHA6Ly8xOTIuMTY4LjIxLjg5
L3Jvb3RjcmwucGVtMA0GCSqGSIb3DQEBBQUAA4ICAQA2/NqrazR1Cu1dNxIa+t3p
v2KZbbGMQTjwryISaG8KsSS3pnUhHVD0lzxB4XHePx5JnZSfvPLnklL6X73EB8RH
HON6iLwRcxwi72djZV/zZnSVNFMI9iRTQtT7SNdF9fN8qb4CK/Zn7ZbrSaK1loJx
JRuB3DZBAoiPDRwsuxCWU6jX4t0Qi6PSVl+mIdB0/cgUk9G/YjrLpkMcuDlWhn1D
/1r5RTR0X6UKuKDByRFBHFnSy4L8t4qlcQBJ92iQcKos0ipIPkouYxCvg/KJLeG3
PW7L8clVsU5cLqdPwrd3eEpb85BJw4foVf89osEHazmlRNeIcerxqWj826dvFvh2
jxOzM1m6IKzR9EsxHCI36qZ63FKIta7m0BZ0kIzyk2jlk3vN6US2YD6V4Ioc8XPX
0rwrVIBN03vrZwD2c5+hOxf/JX+opqc0NfAoHYptuWyQNcGLUiLEZt9y2cpC8bz7
CBM0DEDCpxXqZUI+7cpTi84yjFj86G+JHRpX1hMoY61aekMvQjZ+UjWiP0w8aQHJ
GX5j9HmwmWYApTDY91JVxEFSoTbCxoddebkCCREsvaoEc9IPnUUBXyVPFc/n/8Q2
o3XrVEASuEM8dit+RllkPqFmj+2calh7s86OwNIEH4TcGXXW3VTjTPOo6Tx9k6f5
9Y3HpNnPqVeIwKrMq+SpUA==
-----END CERTIFICATE-----
