Certificate:
    Data:
        Version: 3 (0x2)
        Serial Number: 2 (0x2)
        Signature Algorithm: sha1WithRSAEncryption
        Issuer: C=BA, ST=RS, L=Banja Luka, O=Elektrotehnicki fakultet, OU=CA_ZoranDjuric, CN=Zoran/emailAddress=zoran@
        Validity
            Not Before: Apr  6 01:02:39 2024 GMT
            Not After : Jan 31 01:02:39 2025 GMT
        Subject: C=BA, ST=RS, L=Banja Luka, O=Elektrotehnicki fakultet, OU=CA_OgnjenJoldzic, CN=Bob/emailAddress=bob@
        Subject Public Key Info:
            Public Key Algorithm: rsaEncryption
                RSA Public-Key: (2048 bit)
                Modulus:
                    00:d9:9f:54:18:46:15:84:48:7e:37:cc:ab:2b:d4:
                    b7:d7:50:e1:80:ce:49:ff:79:3c:a0:1c:61:96:c1:
                    9f:f7:57:72:88:bc:96:41:a2:6c:b3:45:91:71:fb:
                    ed:23:d9:0d:4a:0c:17:13:f8:8f:2f:40:ed:14:6d:
                    dd:42:01:38:b2:f9:ff:07:34:07:4e:50:52:ee:37:
                    3c:b0:3f:ef:5d:15:15:cb:58:3d:3d:8f:89:e2:24:
                    81:de:b7:9b:18:92:49:ae:ca:c8:4b:43:f7:f9:dd:
                    29:18:db:1f:9a:4c:12:4d:f2:b6:16:f3:cb:80:e2:
                    2c:38:22:c5:89:d2:f3:ca:a0:c4:be:0d:ac:7e:7e:
                    1d:00:67:a9:77:6b:24:f9:ed:58:f6:d9:e7:44:1b:
                    36:47:3f:47:38:0b:7b:6f:80:6d:2a:8a:89:20:1f:
                    75:7c:64:5c:92:69:73:f7:ec:98:c9:9e:f0:8c:d0:
                    27:c2:35:4c:31:8e:f2:64:9a:32:ce:23:1d:a5:78:
                    f7:41:44:2c:55:3a:53:d2:16:44:b0:8c:25:b5:da:
                    e9:4a:3c:3a:79:ba:9d:c3:c0:de:d4:af:0d:99:ea:
                    2f:2e:5b:3e:20:12:a1:84:b4:90:49:bb:5d:26:fd:
                    72:76:b9:a7:f5:69:f2:ea:6e:f0:f9:08:fb:99:e0:
                    d6:8f
                Exponent: 65537 (0x10001)
        X509v3 extensions:
            X509v3 Basic Constraints: 
                CA:FALSE
            X509v3 Extended Key Usage: 
                TLS Web Client Authentication
            Netscape Comment: 
                OpenSSL Generated Certificate
            X509v3 Subject Key Identifier: 
                6E:A6:05:FE:C0:71:B0:88:F7:57:72:2D:A2:D6:EE:84:B3:5C:61:3B
            X509v3 Authority Key Identifier: 
                keyid:75:D5:F5:A0:88:75:FF:4E:6F:9C:09:4E:D3:FB:F1:FE:9F:F6:42:93

            X509v3 CRL Distribution Points: 

                Full Name:
                  URI:http://192.168.21.89/rootcrl.pem

    Signature Algorithm: sha1WithRSAEncryption
         57:68:a8:87:73:a9:46:c7:d0:46:db:9e:d8:e1:30:73:ea:73:
         1f:b8:b2:a4:a4:63:e8:13:02:e6:b8:e6:2d:e0:47:33:b9:6c:
         8d:58:c6:98:c3:54:d3:3c:eb:ff:17:f1:91:48:5a:ca:f2:ea:
         19:12:01:c6:ea:90:82:8d:4d:5f:ee:67:11:b8:bd:e4:a3:60:
         bd:b5:fa:56:10:b9:fe:8f:db:95:7e:fb:47:8f:2c:83:8b:30:
         12:4c:0f:2c:b7:07:8e:e0:60:fb:98:c9:f4:c0:26:bd:d7:f1:
         33:f5:4f:ee:2e:be:81:41:83:20:e5:82:c6:4b:a9:03:0c:f1:
         2c:9c:35:41:bb:7d:f8:d1:c3:6d:83:3d:da:18:6a:61:49:41:
         3f:d4:8f:82:22:5d:43:c3:e1:d2:51:f2:6a:cd:2e:2f:21:73:
         9a:d6:cd:89:43:7f:81:df:0f:ef:d1:92:23:e1:81:cc:90:a3:
         da:81:bd:1c:ce:06:0a:53:84:c5:91:e0:24:a2:8b:16:6f:d4:
         07:2a:8e:d9:9a:c8:ae:5a:5b:93:d6:d2:d3:bc:9c:b5:48:8d:
         6a:83:59:56:10:82:17:47:bd:48:c5:ec:e6:5f:72:bb:85:30:
         42:a0:04:f0:15:86:fa:94:af:cd:17:bb:08:48:46:77:78:b0:
         05:bc:ff:fa:06:c4:53:2c:27:2a:5e:25:4f:de:8f:39:f7:f2:
         b6:95:b0:89:96:3f:0f:fe:41:8d:f1:0b:ef:80:88:ea:90:15:
         1c:31:c8:b9:3c:37:3e:66:d1:2b:78:66:7e:6c:54:c7:7e:ea:
         f3:a5:2b:e2:2b:bc:ed:80:7f:c7:7d:82:6a:cb:9e:99:38:5f:
         f8:1e:0b:9e:4e:f3:ae:3f:55:86:3a:76:bb:66:57:1a:a3:f5:
         70:48:37:4b:d4:23:8a:4d:5e:44:6f:99:05:28:1c:e2:cd:bf:
         c0:9d:93:7a:a0:42:92:e8:19:a6:bb:0c:da:84:e6:4e:bf:4e:
         e5:e4:01:a1:40:61:c4:c5:09:ce:af:ae:90:f7:9f:16:27:dd:
         37:b3:43:b4:06:43:19:54:6f:ae:fd:69:7b:29:53:f7:65:5a:
         95:42:33:04:63:31:36:eb:91:cf:f4:bd:56:af:9b:68:89:57:
         68:4a:43:84:4a:66:ee:88:77:38:50:04:d6:68:47:59:90:d3:
         1e:40:31:79:e9:75:72:7b:18:2d:41:ef:46:3c:b2:9d:f3:5d:
         2a:6c:3a:f2:4d:e7:5a:09:53:62:76:71:16:de:38:e1:08:c0:
         f9:75:fc:74:ef:97:98:6f:b5:86:86:44:91:04:b8:7c:a1:ea:
         9a:99:cb:02:24:6f:2e:32
-----BEGIN CERTIFICATE-----
MIIFZDCCA0ygAwIBAgIBAjANBgkqhkiG9w0BAQUFADCBkjELMAkGA1UEBhMCQkEx
CzAJBgNVBAgTAlJTMRMwEQYDVQQHEwpCYW5qYSBMdWthMSEwHwYDVQQKExhFbGVr
dHJvdGVobmlja2kgZmFrdWx0ZXQxFzAVBgNVBAsUDkNBX1pvcmFuRGp1cmljMQ4w
DAYDVQQDEwVab3JhbjEVMBMGCSqGSIb3DQEJARYGem9yYW5AMB4XDTI0MDQwNjAx
MDIzOVoXDTI1MDEzMTAxMDIzOVowgZAxCzAJBgNVBAYTAkJBMQswCQYDVQQIEwJS
UzETMBEGA1UEBxMKQmFuamEgTHVrYTEhMB8GA1UEChMYRWxla3Ryb3RlaG5pY2tp
IGZha3VsdGV0MRkwFwYDVQQLFBBDQV9PZ25qZW5Kb2xkemljMQwwCgYDVQQDEwNC
b2IxEzARBgkqhkiG9w0BCQEWBGJvYkAwggEiMA0GCSqGSIb3DQEBAQUAA4IBDwAw
ggEKAoIBAQDZn1QYRhWESH43zKsr1LfXUOGAzkn/eTygHGGWwZ/3V3KIvJZBomyz
RZFx++0j2Q1KDBcT+I8vQO0Ubd1CATiy+f8HNAdOUFLuNzywP+9dFRXLWD09j4ni
JIHet5sYkkmuyshLQ/f53SkY2x+aTBJN8rYW88uA4iw4IsWJ0vPKoMS+Dax+fh0A
Z6l3ayT57Vj22edEGzZHP0c4C3tvgG0qiokgH3V8ZFySaXP37JjJnvCM0CfCNUwx
jvJkmjLOIx2lePdBRCxVOlPSFkSwjCW12ulKPDp5up3DwN7Urw2Z6i8uWz4gEqGE
tJBJu10m/XJ2uaf1afLqbvD5CPuZ4NaPAgMBAAGjgcQwgcEwCQYDVR0TBAIwADAT
BgNVHSUEDDAKBggrBgEFBQcDAjAsBglghkgBhvhCAQ0EHxYdT3BlblNTTCBHZW5l
cmF0ZWQgQ2VydGlmaWNhdGUwHQYDVR0OBBYEFG6mBf7AcbCI91dyLaLW7oSzXGE7
MB8GA1UdIwQYMBaAFHXV9aCIdf9Ob5wJTtP78f6f9kKTMDEGA1UdHwQqMCgwJqAk
oCKGIGh0dHA6Ly8xOTIuMTY4LjIxLjg5L3Jvb3RjcmwucGVtMA0GCSqGSIb3DQEB
BQUAA4ICAQBXaKiHc6lGx9BG257Y4TBz6nMfuLKkpGPoEwLmuOYt4EczuWyNWMaY
w1TTPOv/F/GRSFrK8uoZEgHG6pCCjU1f7mcRuL3ko2C9tfpWELn+j9uVfvtHjyyD
izASTA8stweO4GD7mMn0wCa91/Ez9U/uLr6BQYMg5YLGS6kDDPEsnDVBu3340cNt
gz3aGGphSUE/1I+CIl1Dw+HSUfJqzS4vIXOa1s2JQ3+B3w/v0ZIj4YHMkKPagb0c
zgYKU4TFkeAkoosWb9QHKo7ZmsiuWluT1tLTvJy1SI1qg1lWEIIXR71IxezmX3K7
hTBCoATwFYb6lK/NF7sISEZ3eLAFvP/6BsRTLCcqXiVP3o859/K2lbCJlj8P/kGN
8QvvgIjqkBUcMci5PDc+ZtEreGZ+bFTHfurzpSviK7ztgH/HfYJqy56ZOF/4Hgue
TvOuP1WGOna7Zlcao/VwSDdL1COKTV5Eb5kFKBzizb/AnZN6oEKS6BmmuwzahOZO
v07l5AGhQGHExQnOr66Q958WJ903s0O0BkMZVG+u/Wl7KVP3ZVqVQjMEYzE265HP
9L1Wr5toiVdoSkOESmbuiHc4UATWaEdZkNMeQDF56XVyexgtQe9GPLKd810qbDry
TedaCVNidnEW3jjhCMD5dfx075eYb7WGhkSRBLh8oeqamcsCJG8uMg==
-----END CERTIFICATE-----
