Certificate:
    Data:
        Version: 3 (0x2)
        Serial Number: 4 (0x4)
        Signature Algorithm: sha1WithRSAEncryption
        Issuer: C=BA, ST=RS, L=Banja Luka, O=Elektrotehnicki fakultet, OU=CA_ZoranDjuric, CN=Zoran/emailAddress=zoran@
        Validity
            Not Before: Apr  6 01:11:33 2024 GMT
            Not After : Jan 31 01:11:33 2025 GMT
        Subject: C=BA, ST=RS, L=Banja Luka, O=Elektrotehnicki fakultet, OU=CA_OgnjenJoldzic, CN=Eve/emailAddress=eve@
        Subject Public Key Info:
            Public Key Algorithm: rsaEncryption
                RSA Public-Key: (2048 bit)
                Modulus:
                    00:c4:42:ed:12:f9:e8:f0:90:1b:2d:ae:07:e2:98:
                    5d:0c:97:fa:b7:61:7e:70:83:82:a9:b6:b4:b0:ad:
                    ff:81:a7:df:90:91:2e:77:c0:e3:67:f6:fb:40:69:
                    3e:98:d6:ba:e4:37:7f:af:49:f7:e7:05:59:be:3f:
                    e5:e2:a7:4d:a7:86:da:af:5e:19:f7:00:8e:b5:26:
                    0e:31:d0:5c:89:d0:4f:de:14:db:ba:a8:b1:e5:28:
                    3c:3b:ab:d5:e7:e3:65:1e:10:fb:ff:61:7e:d5:a9:
                    b1:5e:7d:93:d3:b6:e0:fc:8b:2b:37:b1:b8:03:3e:
                    85:be:c1:44:34:0b:7a:1b:aa:1f:80:70:43:80:b5:
                    9e:e9:28:8a:84:24:ba:09:50:b0:7e:96:7e:6b:13:
                    e3:6f:e7:37:0e:fd:75:c4:af:fc:5e:ec:10:c0:fe:
                    b0:d6:44:c6:e3:e7:fb:20:54:96:80:54:a7:c0:57:
                    1c:29:25:d5:9f:b8:24:5e:9f:98:47:de:58:62:81:
                    07:34:4d:a7:02:e2:7d:ee:65:8d:8a:2a:10:b2:2a:
                    8b:0a:fd:a8:be:fc:ff:20:8b:b4:d4:f8:24:51:53:
                    37:23:98:18:fb:9f:76:8f:4e:aa:f0:d7:dd:3e:5f:
                    9e:d8:29:45:c1:94:58:bf:a7:14:2f:67:19:15:74:
                    08:05
                Exponent: 65537 (0x10001)
        X509v3 extensions:
            X509v3 Basic Constraints: 
                CA:FALSE
            X509v3 Extended Key Usage: 
                TLS Web Client Authentication
            Netscape Comment: 
                OpenSSL Generated Certificate
            X509v3 Subject Key Identifier: 
                C6:1F:EA:D7:3D:84:28:51:C8:C8:F3:3C:0F:86:04:AE:50:5F:9D:0A
            X509v3 Authority Key Identifier: 
                keyid:75:D5:F5:A0:88:75:FF:4E:6F:9C:09:4E:D3:FB:F1:FE:9F:F6:42:93

            X509v3 CRL Distribution Points: 

                Full Name:
                  URI:http://192.168.21.89/rootcrl.pem

    Signature Algorithm: sha1WithRSAEncryption
         18:63:df:00:5a:b3:89:45:19:28:71:22:43:d4:d8:fb:3d:da:
         f2:5c:51:ee:de:9f:52:cb:dd:82:f1:4e:1f:8e:d6:82:6a:f0:
         49:16:05:f1:a4:96:cc:f3:a1:1f:5b:38:b3:7c:25:21:6f:1f:
         c0:89:03:3e:21:32:26:60:40:cf:a0:34:40:6f:1c:70:51:8a:
         13:37:b3:5e:3d:2a:ac:3d:46:e0:3a:eb:74:c7:9c:d6:59:63:
         22:b2:d1:7b:49:ba:64:ab:08:05:84:8b:2f:e1:25:8a:96:a2:
         94:be:8b:f3:3f:d7:fd:e2:48:09:d3:67:f4:7e:b1:3b:d5:38:
         6a:22:07:c0:ed:ab:5e:d5:61:35:a6:57:96:0d:39:e8:8e:a2:
         b1:bf:ec:40:b8:30:83:83:6e:69:83:0f:a4:e4:80:65:77:f8:
         ca:0c:f0:c2:86:8e:0b:6c:28:e3:0a:71:0c:ef:9e:4c:a4:f1:
         2b:41:b2:3d:ec:1f:c8:8f:c2:0f:25:88:a4:3e:f2:4e:39:52:
         da:e2:81:35:4c:dc:dc:6b:62:f8:44:b5:0d:49:4c:01:b4:ef:
         b4:1a:fc:12:a1:1c:24:c9:8c:fa:0e:08:0b:d0:ef:35:e3:53:
         82:ad:1f:58:ae:c9:cd:80:6b:25:0d:c4:45:09:f2:c0:5d:eb:
         fe:be:11:97:3d:27:04:49:ee:f1:c7:95:f3:77:66:dc:a1:c5:
         a2:ea:ba:ff:2e:ba:86:59:d8:bb:29:73:38:95:78:f5:08:3b:
         31:01:61:bb:5f:25:6a:71:d1:a4:c5:05:e9:f8:ce:45:0f:d5:
         57:e8:04:70:02:32:0d:d9:c7:21:8b:72:de:4c:2e:43:02:5f:
         30:14:40:29:36:bd:9c:53:79:59:31:4a:39:d9:81:5c:96:d6:
         b6:0e:fe:ab:2d:99:eb:de:f0:05:b4:73:d9:e4:1f:82:c7:c4:
         79:41:88:04:e7:28:f9:92:1f:c2:95:4c:78:2e:4a:4a:49:b4:
         46:13:95:d9:5a:f5:5f:aa:5f:ec:0a:56:b5:3a:26:54:72:2c:
         85:78:0c:03:7f:2f:68:27:62:18:99:8b:0d:35:ac:2c:e9:8a:
         37:7e:28:c8:af:5e:c9:d4:b1:3e:14:90:52:24:63:39:ab:6b:
         ee:da:91:53:0b:46:47:f6:4a:74:3a:95:e3:92:4a:7f:aa:18:
         42:dc:21:02:1b:55:39:7c:9d:bb:4c:f9:91:ee:e0:9e:9b:eb:
         1e:2f:1e:d3:42:09:9c:3f:90:9f:e9:d5:1d:b4:35:70:b1:c8:
         69:aa:a3:1a:a9:5b:9e:99:64:01:90:15:d1:3b:3c:dc:92:0e:
         b0:a7:eb:4a:b7:f5:86:16
-----BEGIN CERTIFICATE-----
MIIFZDCCA0ygAwIBAgIBBDANBgkqhkiG9w0BAQUFADCBkjELMAkGA1UEBhMCQkEx
CzAJBgNVBAgTAlJTMRMwEQYDVQQHEwpCYW5qYSBMdWthMSEwHwYDVQQKExhFbGVr
dHJvdGVobmlja2kgZmFrdWx0ZXQxFzAVBgNVBAsUDkNBX1pvcmFuRGp1cmljMQ4w
DAYDVQQDEwVab3JhbjEVMBMGCSqGSIb3DQEJARYGem9yYW5AMB4XDTI0MDQwNjAx
MTEzM1oXDTI1MDEzMTAxMTEzM1owgZAxCzAJBgNVBAYTAkJBMQswCQYDVQQIEwJS
UzETMBEGA1UEBxMKQmFuamEgTHVrYTEhMB8GA1UEChMYRWxla3Ryb3RlaG5pY2tp
IGZha3VsdGV0MRkwFwYDVQQLFBBDQV9PZ25qZW5Kb2xkemljMQwwCgYDVQQDEwNF
dmUxEzARBgkqhkiG9w0BCQEWBGV2ZUAwggEiMA0GCSqGSIb3DQEBAQUAA4IBDwAw
ggEKAoIBAQDEQu0S+ejwkBstrgfimF0Ml/q3YX5wg4KptrSwrf+Bp9+QkS53wONn
9vtAaT6Y1rrkN3+vSffnBVm+P+Xip02nhtqvXhn3AI61Jg4x0FyJ0E/eFNu6qLHl
KDw7q9Xn42UeEPv/YX7VqbFefZPTtuD8iys3sbgDPoW+wUQ0C3obqh+AcEOAtZ7p
KIqEJLoJULB+ln5rE+Nv5zcO/XXEr/xe7BDA/rDWRMbj5/sgVJaAVKfAVxwpJdWf
uCRen5hH3lhigQc0TacC4n3uZY2KKhCyKosK/ai+/P8gi7TU+CRRUzcjmBj7n3aP
Tqrw190+X57YKUXBlFi/pxQvZxkVdAgFAgMBAAGjgcQwgcEwCQYDVR0TBAIwADAT
BgNVHSUEDDAKBggrBgEFBQcDAjAsBglghkgBhvhCAQ0EHxYdT3BlblNTTCBHZW5l
cmF0ZWQgQ2VydGlmaWNhdGUwHQYDVR0OBBYEFMYf6tc9hChRyMjzPA+GBK5QX50K
MB8GA1UdIwQYMBaAFHXV9aCIdf9Ob5wJTtP78f6f9kKTMDEGA1UdHwQqMCgwJqAk
oCKGIGh0dHA6Ly8xOTIuMTY4LjIxLjg5L3Jvb3RjcmwucGVtMA0GCSqGSIb3DQEB
BQUAA4ICAQAYY98AWrOJRRkocSJD1Nj7PdryXFHu3p9Sy92C8U4fjtaCavBJFgXx
pJbM86EfWzizfCUhbx/AiQM+ITImYEDPoDRAbxxwUYoTN7NePSqsPUbgOut0x5zW
WWMistF7SbpkqwgFhIsv4SWKlqKUvovzP9f94kgJ02f0frE71ThqIgfA7ate1WE1
pleWDTnojqKxv+xAuDCDg25pgw+k5IBld/jKDPDCho4LbCjjCnEM755MpPErQbI9
7B/Ij8IPJYikPvJOOVLa4oE1TNzca2L4RLUNSUwBtO+0GvwSoRwkyYz6DggL0O81
41OCrR9YrsnNgGslDcRFCfLAXev+vhGXPScESe7xx5Xzd2bcocWi6rr/LrqGWdi7
KXM4lXj1CDsxAWG7XyVqcdGkxQXp+M5FD9VX6ARwAjIN2cchi3LeTC5DAl8wFEAp
Nr2cU3lZMUo52YFclta2Dv6rLZnr3vAFtHPZ5B+Cx8R5QYgE5yj5kh/ClUx4LkpK
SbRGE5XZWvVfql/sCla1OiZUciyFeAwDfy9oJ2IYmYsNNaws6Yo3fijIr17J1LE+
FJBSJGM5q2vu2pFTC0ZH9kp0OpXjkkp/qhhC3CECG1U5fJ27TPmR7uCem+seLx7T
QgmcP5Cf6dUdtDVwschpqqMaqVuemWQBkBXROzzckg6wp+tKt/WGFg==
-----END CERTIFICATE-----
