Certificate:
    Data:
        Version: 3 (0x2)
        Serial Number: 3 (0x3)
        Signature Algorithm: sha1WithRSAEncryption
        Issuer: C=BA, ST=RS, L=Banja Luka, O=Elektrotehnicki fakultet, OU=CA_ZoranDjuric, CN=Zoran/emailAddress=zoran@
        Validity
            Not Before: Apr  6 01:09:50 2024 GMT
            Not After : Jan 31 01:09:50 2025 GMT
        Subject: C=BA, ST=RS, L=Banja Luka, O=Elektrotehnicki fakultet, OU=CA_OgnjenJoldzic, CN=Ronald/emailAddress=ron@
        Subject Public Key Info:
            Public Key Algorithm: rsaEncryption
                RSA Public-Key: (2048 bit)
                Modulus:
                    00:d4:f0:6d:0b:51:66:0a:25:45:97:86:96:6f:c8:
                    b0:78:70:20:88:1c:ae:b4:43:b2:8a:65:90:ff:00:
                    6d:c4:31:cd:29:c5:a1:12:81:b2:cb:75:ed:f5:7c:
                    eb:61:65:85:41:63:e6:7b:00:64:18:c0:37:a0:74:
                    87:c2:b8:c8:34:cb:1a:26:00:22:c9:c3:a3:c5:c4:
                    eb:cb:7c:33:93:4f:3f:30:16:3c:3b:79:50:d9:d0:
                    53:5d:db:4a:94:2c:e9:d8:4a:6a:cd:75:93:7f:09:
                    76:81:92:ba:e2:4a:cf:6f:b6:74:44:a7:07:2f:5d:
                    00:9f:ff:e0:3e:ae:0d:f5:bc:f0:70:ae:3f:60:4c:
                    bc:76:60:b4:b4:c7:0e:b2:98:1b:e1:2c:c4:a7:00:
                    1d:79:78:f8:cc:e9:58:f6:57:68:59:b4:c9:b0:be:
                    9e:10:8c:29:59:a6:f0:82:16:38:05:60:f2:d7:f2:
                    44:4d:98:45:88:11:73:4d:07:9c:c6:a9:f5:8d:cd:
                    b4:80:f1:a8:0b:13:6f:74:57:b9:42:6a:e6:27:f4:
                    1d:91:2b:c3:e3:09:27:92:e1:4c:4a:26:1d:31:78:
                    af:c5:4a:ff:d8:c7:f0:34:0c:37:8a:94:ae:7f:e2:
                    95:12:35:05:d3:6b:05:83:df:c8:50:0d:62:c3:1c:
                    a8:f9
                Exponent: 65537 (0x10001)
        X509v3 extensions:
            X509v3 Basic Constraints: 
                CA:FALSE
            X509v3 Extended Key Usage: 
                TLS Web Client Authentication
            Netscape Comment: 
                OpenSSL Generated Certificate
            X509v3 Subject Key Identifier: 
                ED:27:15:CE:7A:6D:FF:AA:35:D1:B6:43:CD:E8:EC:59:FF:98:9E:E2
            X509v3 Authority Key Identifier: 
                keyid:75:D5:F5:A0:88:75:FF:4E:6F:9C:09:4E:D3:FB:F1:FE:9F:F6:42:93

            X509v3 CRL Distribution Points: 

                Full Name:
                  URI:http://192.168.21.89/rootcrl.pem

    Signature Algorithm: sha1WithRSAEncryption
         4d:f3:66:25:c8:82:6e:ef:cb:d6:fa:7b:e6:ad:63:76:fe:48:
         45:46:46:77:c5:13:10:8c:6d:c4:d2:82:da:39:67:7c:20:bb:
         0a:b4:97:bd:b1:cb:15:54:9b:4b:4a:25:58:40:c1:fa:07:eb:
         06:3f:95:46:2b:be:cc:e6:36:47:2b:b4:75:77:74:e2:bb:ba:
         60:02:75:1f:89:08:6a:b2:e6:02:ac:8b:6c:79:91:44:2d:31:
         48:66:54:88:50:e8:fb:af:52:90:5a:bb:10:d6:c8:f1:68:c4:
         22:6e:be:1e:ac:e7:66:58:4d:53:63:6f:a6:7c:e4:4a:51:af:
         aa:25:f6:da:77:7c:d6:4b:86:23:a1:d1:45:af:37:94:db:e9:
         58:f3:0b:1d:1e:a0:2b:7d:70:4b:67:a8:4c:00:61:3d:2e:ad:
         27:0f:7d:49:7d:70:52:d5:d3:b8:cd:0d:5e:ab:4f:97:eb:f6:
         a8:62:c8:83:dc:f9:6d:e9:62:03:fc:3e:a6:72:3c:88:ef:e7:
         2e:55:42:49:56:60:ec:fa:83:f4:05:f9:36:40:97:76:f5:28:
         52:ee:b1:c8:1c:11:42:52:22:49:30:22:3e:24:28:fd:32:62:
         2b:a9:21:de:b3:8e:67:71:a2:8e:96:6c:73:24:3e:0e:b4:c3:
         90:40:95:e2:1b:1f:20:38:c6:f5:b9:97:1b:81:9d:16:36:4e:
         4c:18:5c:fb:c9:0a:1c:b4:c6:ab:e1:5d:a8:98:b6:b1:28:24:
         40:3d:d7:d9:3b:db:a4:e7:06:2c:19:fb:4b:cb:90:09:70:9a:
         e4:18:91:53:56:41:a1:6e:5a:3e:c6:0b:21:13:65:b8:fa:a5:
         4a:4e:67:8b:9a:f4:f9:ab:19:38:10:dc:cf:9c:fa:50:bc:bf:
         dd:49:6f:af:51:9b:2a:b1:67:a4:ba:53:e4:ba:b8:10:13:a9:
         68:97:86:bd:f7:1d:24:41:28:01:e1:8e:6c:5d:b7:9e:2b:c6:
         52:9b:fd:0e:4b:38:28:a7:a0:ef:cf:b2:d7:26:38:c6:f1:2e:
         4e:a6:10:a8:ff:e9:a0:44:87:c2:73:a2:d3:ba:76:9b:6b:15:
         5c:68:36:fb:59:ea:b8:03:ae:90:c8:7a:f3:34:68:f1:0d:4b:
         a5:29:68:7e:14:89:79:ce:04:92:19:17:dc:c0:03:f3:52:44:
         54:39:35:cd:a9:d9:0e:44:8b:f4:75:f1:bc:46:a0:38:a1:3d:
         ae:6f:8d:3e:48:4d:f3:1b:23:1d:5d:0a:57:c9:cf:3e:84:b1:
         d8:75:1d:d6:fa:04:31:94:1e:83:17:c2:5c:40:f9:f5:4f:15:
         1c:f9:66:c3:0e:7d:3d:23
-----BEGIN CERTIFICATE-----
MIIFZzCCA0+gAwIBAgIBAzANBgkqhkiG9w0BAQUFADCBkjELMAkGA1UEBhMCQkEx
CzAJBgNVBAgTAlJTMRMwEQYDVQQHEwpCYW5qYSBMdWthMSEwHwYDVQQKExhFbGVr
dHJvdGVobmlja2kgZmFrdWx0ZXQxFzAVBgNVBAsUDkNBX1pvcmFuRGp1cmljMQ4w
DAYDVQQDEwVab3JhbjEVMBMGCSqGSIb3DQEJARYGem9yYW5AMB4XDTI0MDQwNjAx
MDk1MFoXDTI1MDEzMTAxMDk1MFowgZMxCzAJBgNVBAYTAkJBMQswCQYDVQQIEwJS
UzETMBEGA1UEBxMKQmFuamEgTHVrYTEhMB8GA1UEChMYRWxla3Ryb3RlaG5pY2tp
IGZha3VsdGV0MRkwFwYDVQQLFBBDQV9PZ25qZW5Kb2xkemljMQ8wDQYDVQQDEwZS
b25hbGQxEzARBgkqhkiG9w0BCQEWBHJvbkAwggEiMA0GCSqGSIb3DQEBAQUAA4IB
DwAwggEKAoIBAQDU8G0LUWYKJUWXhpZvyLB4cCCIHK60Q7KKZZD/AG3EMc0pxaES
gbLLde31fOthZYVBY+Z7AGQYwDegdIfCuMg0yxomACLJw6PFxOvLfDOTTz8wFjw7
eVDZ0FNd20qULOnYSmrNdZN/CXaBkrriSs9vtnREpwcvXQCf/+A+rg31vPBwrj9g
TLx2YLS0xw6ymBvhLMSnAB15ePjM6Vj2V2hZtMmwvp4QjClZpvCCFjgFYPLX8kRN
mEWIEXNNB5zGqfWNzbSA8agLE290V7lCauYn9B2RK8PjCSeS4UxKJh0xeK/FSv/Y
x/A0DDeKlK5/4pUSNQXTawWD38hQDWLDHKj5AgMBAAGjgcQwgcEwCQYDVR0TBAIw
ADATBgNVHSUEDDAKBggrBgEFBQcDAjAsBglghkgBhvhCAQ0EHxYdT3BlblNTTCBH
ZW5lcmF0ZWQgQ2VydGlmaWNhdGUwHQYDVR0OBBYEFO0nFc56bf+qNdG2Q83o7Fn/
mJ7iMB8GA1UdIwQYMBaAFHXV9aCIdf9Ob5wJTtP78f6f9kKTMDEGA1UdHwQqMCgw
JqAkoCKGIGh0dHA6Ly8xOTIuMTY4LjIxLjg5L3Jvb3RjcmwucGVtMA0GCSqGSIb3
DQEBBQUAA4ICAQBN82YlyIJu78vW+nvmrWN2/khFRkZ3xRMQjG3E0oLaOWd8ILsK
tJe9scsVVJtLSiVYQMH6B+sGP5VGK77M5jZHK7R1d3Tiu7pgAnUfiQhqsuYCrIts
eZFELTFIZlSIUOj7r1KQWrsQ1sjxaMQibr4erOdmWE1TY2+mfORKUa+qJfbad3zW
S4YjodFFrzeU2+lY8wsdHqArfXBLZ6hMAGE9Lq0nD31JfXBS1dO4zQ1eq0+X6/ao
YsiD3Plt6WID/D6mcjyI7+cuVUJJVmDs+oP0Bfk2QJd29ShS7rHIHBFCUiJJMCI+
JCj9MmIrqSHes45ncaKOlmxzJD4OtMOQQJXiGx8gOMb1uZcbgZ0WNk5MGFz7yQoc
tMar4V2omLaxKCRAPdfZO9uk5wYsGftLy5AJcJrkGJFTVkGhblo+xgshE2W4+qVK
TmeLmvT5qxk4ENzPnPpQvL/dSW+vUZsqsWekulPkurgQE6lol4a99x0kQSgB4Y5s
XbeeK8ZSm/0OSzgop6Dvz7LXJjjG8S5OphCo/+mgRIfCc6LTunabaxVcaDb7Weq4
A66QyHrzNGjxDUulKWh+FIl5zgSSGRfcwAPzUkRUOTXNqdkORIv0dfG8RqA4oT2u
b40+SE3zGyMdXQpXyc8+hLHYdR3W+gQxlB6DF8JcQPn1TxUc+WbDDn09Iw==
-----END CERTIFICATE-----
